; Function Attrs: mustprogress uwtable
define void @_ZNK14ProtoTreeModel6parentERK11QModelIndex(ptr dead_on_unwind noalias nocapture writable writeonly sret(%class.QModelIndex) align 8 %0, ptr noundef nonnull align 8 dereferenceable(24) %1, ptr nocapture noundef nonnull readonly align 8 dereferenceable(24) %2) unnamed_addr #0 align 2 {
  %4 = load i32, ptr %2, align 8
  %5 = icmp sgt i32 %4, -1
  %6 = getelementptr inbounds i8, ptr %2, i64 4
  %7 = load i32, ptr %6, align 4
  %8 = icmp sgt i32 %7, -1
  %or.cond.i = select i1 %5, i1 %8, i1 false
  %9 = getelementptr inbounds i8, ptr %2, i64 16
  %10 = load ptr, ptr %9, align 8
  %11 = icmp ne ptr %10, null
  %or.cond = select i1 %or.cond.i, i1 %11, i1 false
  br i1 %or.cond, label %14, label %_ZNK11QModelIndex7isValidEv.exit.thread

_ZNK11QModelIndex7isValidEv.exit.thread:          ; preds = %3
  store i32 -1, ptr %0, align 8
  %12 = getelementptr inbounds i8, ptr %0, i64 4
  store i32 -1, ptr %12, align 4
  %13 = getelementptr inbounds i8, ptr %0, i64 8
  tail call void @llvm.memset.p0.i64(ptr noundef nonnull align 8 dereferenceable(16) %13, i8 0, i64 16, i1 false)
  br label %_ZNK14ProtoTreeModel18indexFromProtoNodeEP9ProtoNode.exit

14:                                               ; preds = %3
  %15 = getelementptr inbounds i8, ptr %2, i64 8
  %16 = load i64, ptr %15, align 8
  %17 = inttoptr i64 %16 to ptr
  %18 = tail call noundef ptr @_ZN9ProtoNode10parentNodeEv(ptr noundef nonnull align 8 dereferenceable(40) %17)
  tail call void @llvm.experimental.noalias.scope.decl(metadata !7)
  %.not8.i = icmp eq ptr %18, null
  br i1 %.not8.i, label %19, label %22

19:                                               ; preds = %14
  store i32 -1, ptr %0, align 8, !alias.scope !7
  %20 = getelementptr inbounds i8, ptr %0, i64 4
  store i32 -1, ptr %20, align 4, !alias.scope !7
  %21 = getelementptr inbounds i8, ptr %0, i64 8
  tail call void @llvm.memset.p0.i64(ptr noundef nonnull align 8 dereferenceable(16) %21, i8 0, i64 16, i1 false), !alias.scope !7
  br label %_ZNK14ProtoTreeModel18indexFromProtoNodeEP9ProtoNode.exit

22:                                               ; preds = %14
  %23 = tail call noundef i32 @_ZN9ProtoNode3rowEv(ptr noundef nonnull align 8 dereferenceable(40) %18), !noalias !7
  %24 = tail call noundef zeroext i1 @_ZNK9ProtoNode7isValidEv(ptr noundef nonnull align 8 dereferenceable(40) %18), !noalias !7
  %25 = icmp sgt i32 %23, -1
  %or.cond.not.i = and i1 %25, %24
  %26 = getelementptr inbounds i8, ptr %0, i64 4
  %27 = getelementptr inbounds i8, ptr %0, i64 8
  br i1 %or.cond.not.i, label %29, label %28

28:                                               ; preds = %22
  store i32 -1, ptr %0, align 8, !alias.scope !7
  store i32 -1, ptr %26, align 4, !alias.scope !7
  tail call void @llvm.memset.p0.i64(ptr noundef nonnull align 8 dereferenceable(16) %27, i8 0, i64 16, i1 false), !alias.scope !7
  br label %_ZNK14ProtoTreeModel18indexFromProtoNodeEP9ProtoNode.exit

29:                                               ; preds = %22
  store i32 %23, ptr %0, align 8, !alias.scope !10
  store i32 0, ptr %26, align 4, !alias.scope !10
  %30 = ptrtoint ptr %18 to i64
  store i64 %30, ptr %27, align 8, !alias.scope !10
  %31 = getelementptr inbounds i8, ptr %0, i64 16
  store ptr %1, ptr %31, align 8, !alias.scope !10
  br label %_ZNK14ProtoTreeModel18indexFromProtoNodeEP9ProtoNode.exit

_ZNK14ProtoTreeModel18indexFromProtoNodeEP9ProtoNode.exit: ; preds = %29, %28, %19, %_ZNK11QModelIndex7isValidEv.exit.thread
  ret void
}